target datalayout = "e-m:e-p270:32:32-p271:32:32-p272:64:64-i64:64-i128:128-f80:128-n8:16:32:64-S128"
target triple = "x86_64-pc-linux-gnu"

%struct.SDL_GUID = type { [16 x i8] }
%struct.SDL_Gamepad = type { ptr, i32, ptr, i32, i32, ptr, i32, ptr, ptr, ptr, i64, ptr }
%struct.SDL_Joystick = type { i32, ptr, ptr, ptr, %struct.SDL_GUID, i16, i64, i8, i8, i32, ptr, i32, ptr, i32, ptr, i32, ptr, i32, ptr, i32, i32, ptr, i16, i16, i64, i64, i16, i16, i64, i64, i8, i8, i8, i64, i8, i32, i32, i32, i8, i32, ptr, i32, ptr, [3 x [3 x float]], i64, ptr, ptr, i32, i32, ptr }
%struct.SDL_JoystickSensorInfo = type { i32, i8, float, [3 x float] }
%struct.SDL_JoystickDriver = type { ptr, ptr, ptr, ptr, ptr, ptr, ptr, ptr, ptr, ptr, ptr, ptr, ptr, ptr, ptr, ptr, ptr, ptr, ptr, ptr, ptr }

@.str.4 = private unnamed_addr constant [26 x i8] c"Parameter '%s' is invalid\00", align 1
@.str.5 = private unnamed_addr constant [8 x i8] c"gamepad\00", align 1
@.str.23 = private unnamed_addr constant [32 x i8] c"That operation is not supported\00", align 1

; Function Attrs: nounwind uwtable
define hidden ptr @SDL_GetGamepadJoystick_REAL(ptr noundef %0) #0 {
  %2 = alloca ptr, align 8
  %3 = alloca ptr, align 8
  %4 = alloca ptr, align 8
  %5 = alloca i32, align 4
  store ptr %0, ptr %3, align 8
  call void @llvm.lifetime.start.p0(i64 8, ptr %4) #8
  call void @SDL_LockJoysticks_REAL()
  %6 = load ptr, ptr %3, align 8
  %7 = call zeroext i1 @SDL_ObjectValid(ptr noundef %6, i32 noundef 5)
  br i1 %7, label %8, label %13

8:                                                ; preds = %1
  %9 = load ptr, ptr %3, align 8
  %10 = getelementptr inbounds nuw %struct.SDL_Gamepad, ptr %9, i32 0, i32 0
  %11 = load ptr, ptr %10, align 8
  %12 = call zeroext i1 @SDL_IsJoystickValid(ptr noundef %11)
  br i1 %12, label %15, label %13

13:                                               ; preds = %8, %1
  %14 = call zeroext i1 (ptr, ...) @SDL_SetError_REAL(ptr noundef @.str.4, ptr noundef @.str.5)
  call void @SDL_UnlockJoysticks_REAL()
  store ptr null, ptr %2, align 8
  store i32 1, ptr %5, align 4
  br label %20

15:                                               ; preds = %8
  %16 = load ptr, ptr %3, align 8
  %17 = getelementptr inbounds nuw %struct.SDL_Gamepad, ptr %16, i32 0, i32 0
  %18 = load ptr, ptr %17, align 8
  store ptr %18, ptr %4, align 8
  call void @SDL_UnlockJoysticks_REAL()
  %19 = load ptr, ptr %4, align 8
  store ptr %19, ptr %2, align 8
  store i32 1, ptr %5, align 4
  br label %20

20:                                               ; preds = %15, %13
  call void @llvm.lifetime.end.p0(i64 8, ptr %4) #8
  %21 = load ptr, ptr %2, align 8
  ret ptr %21
}

; Function Attrs: nounwind uwtable
define hidden zeroext i1 @SDL_SetGamepadSensorEnabled_REAL(ptr noundef %0, i32 noundef %1, i1 noundef zeroext %2) #0 {
  %4 = alloca i1, align 1
  %5 = alloca ptr, align 8
  %6 = alloca i32, align 4
  %7 = alloca i8, align 1
  %8 = alloca ptr, align 8
  %9 = alloca i32, align 4
  %10 = alloca ptr, align 8
  %11 = alloca i32, align 4
  store ptr %0, ptr %5, align 8
  store i32 %1, ptr %6, align 4
  %12 = zext i1 %2 to i8
  store i8 %12, ptr %7, align 1
  call void @SDL_LockJoysticks_REAL()
  call void @llvm.lifetime.start.p0(i64 8, ptr %8) #8
  %13 = load ptr, ptr %5, align 8
  %14 = call ptr @SDL_GetGamepadJoystick_REAL(ptr noundef %13)
  store ptr %14, ptr %8, align 8
  %15 = load ptr, ptr %8, align 8
  %16 = icmp ne ptr %15, null
  br i1 %16, label %17, label %185

17:                                               ; preds = %3
  call void @llvm.lifetime.start.p0(i64 4, ptr %9) #8
  store i32 0, ptr %9, align 4
  br label %18

18:                                               ; preds = %178, %17
  %19 = load i32, ptr %9, align 4
  %20 = load ptr, ptr %8, align 8
  %21 = getelementptr inbounds nuw %struct.SDL_Joystick, ptr %20, i32 0, i32 19
  %22 = load i32, ptr %21, align 8
  %23 = icmp slt i32 %19, %22
  br i1 %23, label %24, label %181

24:                                               ; preds = %18
  call void @llvm.lifetime.start.p0(i64 8, ptr %10) #8
  %25 = load ptr, ptr %8, align 8
  %26 = getelementptr inbounds nuw %struct.SDL_Joystick, ptr %25, i32 0, i32 21
  %27 = load ptr, ptr %26, align 8
  %28 = load i32, ptr %9, align 4
  %29 = sext i32 %28 to i64
  %30 = getelementptr inbounds %struct.SDL_JoystickSensorInfo, ptr %27, i64 %29
  store ptr %30, ptr %10, align 8
  %31 = load ptr, ptr %10, align 8
  %32 = getelementptr inbounds nuw %struct.SDL_JoystickSensorInfo, ptr %31, i32 0, i32 0
  %33 = load i32, ptr %32, align 4
  %34 = load i32, ptr %6, align 4
  %35 = icmp eq i32 %33, %34
  br i1 %35, label %36, label %174

36:                                               ; preds = %24
  %37 = load ptr, ptr %10, align 8
  %38 = getelementptr inbounds nuw %struct.SDL_JoystickSensorInfo, ptr %37, i32 0, i32 1
  %39 = load i8, ptr %38, align 4, !range !3, !noundef !4
  %40 = trunc i8 %39 to i1
  %41 = zext i1 %40 to i32
  %42 = load i8, ptr %7, align 1, !range !3, !noundef !4
  %43 = trunc i8 %42 to i1
  %44 = zext i1 %43 to i32
  %45 = icmp ne i32 %44, 0
  %46 = zext i1 %45 to i32
  %47 = icmp eq i32 %41, %46
  br i1 %47, label %48, label %49

48:                                               ; preds = %36
  call void @SDL_UnlockJoysticks_REAL()
  store i1 true, ptr %4, align 1
  store i32 1, ptr %11, align 4
  br label %175

49:                                               ; preds = %36
  %50 = load i32, ptr %6, align 4
  %51 = icmp eq i32 %50, 1
  br i1 %51, label %52, label %86

52:                                               ; preds = %49
  %53 = load ptr, ptr %8, align 8
  %54 = getelementptr inbounds nuw %struct.SDL_Joystick, ptr %53, i32 0, i32 39
  %55 = load i32, ptr %54, align 4
  %56 = icmp ne i32 %55, 0
  br i1 %56, label %57, label %86

57:                                               ; preds = %52
  %58 = load i8, ptr %7, align 1, !range !3, !noundef !4
  %59 = trunc i8 %58 to i1
  br i1 %59, label %60, label %73

60:                                               ; preds = %57
  %61 = load ptr, ptr %8, align 8
  %62 = getelementptr inbounds nuw %struct.SDL_Joystick, ptr %61, i32 0, i32 39
  %63 = load i32, ptr %62, align 4
  %64 = call ptr @SDL_OpenSensor_REAL(i32 noundef %63)
  %65 = load ptr, ptr %8, align 8
  %66 = getelementptr inbounds nuw %struct.SDL_Joystick, ptr %65, i32 0, i32 40
  store ptr %64, ptr %66, align 8
  %67 = load ptr, ptr %8, align 8
  %68 = getelementptr inbounds nuw %struct.SDL_Joystick, ptr %67, i32 0, i32 40
  %69 = load ptr, ptr %68, align 8
  %70 = icmp ne ptr %69, null
  br i1 %70, label %72, label %71

71:                                               ; preds = %60
  call void @SDL_UnlockJoysticks_REAL()
  store i1 false, ptr %4, align 1
  store i32 1, ptr %11, align 4
  br label %175

72:                                               ; preds = %60
  br label %85

73:                                               ; preds = %57
  %74 = load ptr, ptr %8, align 8
  %75 = getelementptr inbounds nuw %struct.SDL_Joystick, ptr %74, i32 0, i32 40
  %76 = load ptr, ptr %75, align 8
  %77 = icmp ne ptr %76, null
  br i1 %77, label %78, label %84

78:                                               ; preds = %73
  %79 = load ptr, ptr %8, align 8
  %80 = getelementptr inbounds nuw %struct.SDL_Joystick, ptr %79, i32 0, i32 40
  %81 = load ptr, ptr %80, align 8
  call void @SDL_CloseSensor_REAL(ptr noundef %81)
  %82 = load ptr, ptr %8, align 8
  %83 = getelementptr inbounds nuw %struct.SDL_Joystick, ptr %82, i32 0, i32 40
  store ptr null, ptr %83, align 8
  br label %84

84:                                               ; preds = %78, %73
  br label %85

85:                                               ; preds = %84, %72
  br label %168

86:                                               ; preds = %52, %49
  %87 = load i32, ptr %6, align 4
  %88 = icmp eq i32 %87, 2
  br i1 %88, label %89, label %123

89:                                               ; preds = %86
  %90 = load ptr, ptr %8, align 8
  %91 = getelementptr inbounds nuw %struct.SDL_Joystick, ptr %90, i32 0, i32 41
  %92 = load i32, ptr %91, align 8
  %93 = icmp ne i32 %92, 0
  br i1 %93, label %94, label %123

94:                                               ; preds = %89
  %95 = load i8, ptr %7, align 1, !range !3, !noundef !4
  %96 = trunc i8 %95 to i1
  br i1 %96, label %97, label %110

97:                                               ; preds = %94
  %98 = load ptr, ptr %8, align 8
  %99 = getelementptr inbounds nuw %struct.SDL_Joystick, ptr %98, i32 0, i32 41
  %100 = load i32, ptr %99, align 8
  %101 = call ptr @SDL_OpenSensor_REAL(i32 noundef %100)
  %102 = load ptr, ptr %8, align 8
  %103 = getelementptr inbounds nuw %struct.SDL_Joystick, ptr %102, i32 0, i32 42
  store ptr %101, ptr %103, align 8
  %104 = load ptr, ptr %8, align 8
  %105 = getelementptr inbounds nuw %struct.SDL_Joystick, ptr %104, i32 0, i32 42
  %106 = load ptr, ptr %105, align 8
  %107 = icmp ne ptr %106, null
  br i1 %107, label %109, label %108

108:                                              ; preds = %97
  call void @SDL_UnlockJoysticks_REAL()
  store i1 false, ptr %4, align 1
  store i32 1, ptr %11, align 4
  br label %175

109:                                              ; preds = %97
  br label %122

110:                                              ; preds = %94
  %111 = load ptr, ptr %8, align 8
  %112 = getelementptr inbounds nuw %struct.SDL_Joystick, ptr %111, i32 0, i32 42
  %113 = load ptr, ptr %112, align 8
  %114 = icmp ne ptr %113, null
  br i1 %114, label %115, label %121

115:                                              ; preds = %110
  %116 = load ptr, ptr %8, align 8
  %117 = getelementptr inbounds nuw %struct.SDL_Joystick, ptr %116, i32 0, i32 42
  %118 = load ptr, ptr %117, align 8
  call void @SDL_CloseSensor_REAL(ptr noundef %118)
  %119 = load ptr, ptr %8, align 8
  %120 = getelementptr inbounds nuw %struct.SDL_Joystick, ptr %119, i32 0, i32 42
  store ptr null, ptr %120, align 8
  br label %121

121:                                              ; preds = %115, %110
  br label %122

122:                                              ; preds = %121, %109
  br label %167

123:                                              ; preds = %89, %86
  %124 = load i8, ptr %7, align 1, !range !3, !noundef !4
  %125 = trunc i8 %124 to i1
  br i1 %125, label %126, label %146

126:                                              ; preds = %123
  %127 = load ptr, ptr %8, align 8
  %128 = getelementptr inbounds nuw %struct.SDL_Joystick, ptr %127, i32 0, i32 20
  %129 = load i32, ptr %128, align 4
  %130 = icmp eq i32 %129, 0
  br i1 %130, label %131, label %141

131:                                              ; preds = %126
  %132 = load ptr, ptr %8, align 8
  %133 = getelementptr inbounds nuw %struct.SDL_Joystick, ptr %132, i32 0, i32 45
  %134 = load ptr, ptr %133, align 8
  %135 = getelementptr inbounds nuw %struct.SDL_JoystickDriver, ptr %134, i32 0, i32 16
  %136 = load ptr, ptr %135, align 8
  %137 = load ptr, ptr %8, align 8
  %138 = call zeroext i1 %136(ptr noundef %137, i1 noundef zeroext true)
  br i1 %138, label %140, label %139

139:                                              ; preds = %131
  call void @SDL_UnlockJoysticks_REAL()
  store i1 false, ptr %4, align 1
  store i32 1, ptr %11, align 4
  br label %175

140:                                              ; preds = %131
  br label %141

141:                                              ; preds = %140, %126
  %142 = load ptr, ptr %8, align 8
  %143 = getelementptr inbounds nuw %struct.SDL_Joystick, ptr %142, i32 0, i32 20
  %144 = load i32, ptr %143, align 4
  %145 = add nsw i32 %144, 1
  store i32 %145, ptr %143, align 4
  br label %166

146:                                              ; preds = %123
  %147 = load ptr, ptr %8, align 8
  %148 = getelementptr inbounds nuw %struct.SDL_Joystick, ptr %147, i32 0, i32 20
  %149 = load i32, ptr %148, align 4
  %150 = icmp eq i32 %149, 1
  br i1 %150, label %151, label %161

151:                                              ; preds = %146
  %152 = load ptr, ptr %8, align 8
  %153 = getelementptr inbounds nuw %struct.SDL_Joystick, ptr %152, i32 0, i32 45
  %154 = load ptr, ptr %153, align 8
  %155 = getelementptr inbounds nuw %struct.SDL_JoystickDriver, ptr %154, i32 0, i32 16
  %156 = load ptr, ptr %155, align 8
  %157 = load ptr, ptr %8, align 8
  %158 = call zeroext i1 %156(ptr noundef %157, i1 noundef zeroext false)
  br i1 %158, label %160, label %159

159:                                              ; preds = %151
  call void @SDL_UnlockJoysticks_REAL()
  store i1 false, ptr %4, align 1
  store i32 1, ptr %11, align 4
  br label %175

160:                                              ; preds = %151
  br label %161

161:                                              ; preds = %160, %146
  %162 = load ptr, ptr %8, align 8
  %163 = getelementptr inbounds nuw %struct.SDL_Joystick, ptr %162, i32 0, i32 20
  %164 = load i32, ptr %163, align 4
  %165 = add nsw i32 %164, -1
  store i32 %165, ptr %163, align 4
  br label %166

166:                                              ; preds = %161, %141
  br label %167

167:                                              ; preds = %166, %122
  br label %168

168:                                              ; preds = %167, %85
  %169 = load i8, ptr %7, align 1, !range !3, !noundef !4
  %170 = trunc i8 %169 to i1
  %171 = load ptr, ptr %10, align 8
  %172 = getelementptr inbounds nuw %struct.SDL_JoystickSensorInfo, ptr %171, i32 0, i32 1
  %173 = zext i1 %170 to i8
  store i8 %173, ptr %172, align 4
  call void @SDL_UnlockJoysticks_REAL()
  store i1 true, ptr %4, align 1
  store i32 1, ptr %11, align 4
  br label %175

174:                                              ; preds = %24
  store i32 0, ptr %11, align 4
  br label %175

175:                                              ; preds = %174, %168, %159, %139, %108, %71, %48
  call void @llvm.lifetime.end.p0(i64 8, ptr %10) #8
  %176 = load i32, ptr %11, align 4
  switch i32 %176, label %182 [
    i32 0, label %177
  ]

177:                                              ; preds = %175
  br label %178

178:                                              ; preds = %177
  %179 = load i32, ptr %9, align 4
  %180 = add nsw i32 %179, 1
  store i32 %180, ptr %9, align 4
  br label %18, !llvm.loop !42

181:                                              ; preds = %18
  store i32 0, ptr %11, align 4
  br label %182

182:                                              ; preds = %181, %175
  call void @llvm.lifetime.end.p0(i64 4, ptr %9) #8
  %183 = load i32, ptr %11, align 4
  switch i32 %183, label %186 [
    i32 0, label %184
  ]

184:                                              ; preds = %182
  br label %185

185:                                              ; preds = %184, %3
  store i32 0, ptr %11, align 4
  br label %186

186:                                              ; preds = %185, %182
  call void @llvm.lifetime.end.p0(i64 8, ptr %8) #8
  %187 = load i32, ptr %11, align 4
  switch i32 %187, label %192 [
    i32 0, label %188
    i32 1, label %190
  ]

188:                                              ; preds = %186
  call void @SDL_UnlockJoysticks_REAL()
  %189 = call zeroext i1 (ptr, ...) @SDL_SetError_REAL(ptr noundef @.str.23)
  store i1 %189, ptr %4, align 1
  br label %190

190:                                              ; preds = %188, %186
  %191 = load i1, ptr %4, align 1
  ret i1 %191

192:                                              ; preds = %186
  unreachable
}