; Function Attrs: nounwind uwtable
define hidden zeroext i1 @SDL_SetGamepadSensorEnabled_REAL(ptr noundef %0, i32 noundef %1, i1 noundef zeroext %2) local_unnamed_addr #0 {
  %4 = zext i1 %2 to i8
  tail call void @SDL_LockJoysticks_REAL() #10
  tail call void @SDL_LockJoysticks_REAL() #10
  %5 = tail call zeroext i1 @SDL_ObjectValid(ptr noundef %0, i32 noundef 5) #10
  br i1 %5, label %6, label %SDL_GetGamepadJoystick_REAL.exit.thread

6:                                                ; preds = %3
  %7 = load ptr, ptr %0, align 8
  %8 = tail call zeroext i1 @SDL_IsJoystickValid(ptr noundef %7) #10
  br i1 %8, label %SDL_GetGamepadJoystick_REAL.exit, label %SDL_GetGamepadJoystick_REAL.exit.thread

SDL_GetGamepadJoystick_REAL.exit.thread:          ; preds = %3, %6
  %9 = tail call zeroext i1 (ptr, ...) @SDL_SetError_REAL(ptr noundef nonnull @.str.4, ptr noundef nonnull @.str.5) #10
  tail call void @SDL_UnlockJoysticks_REAL() #10
  br label %.loopexit

SDL_GetGamepadJoystick_REAL.exit:                 ; preds = %6
  %10 = load ptr, ptr %0, align 8
  tail call void @SDL_UnlockJoysticks_REAL() #10
  %.not = icmp eq ptr %10, null
  br i1 %.not, label %.loopexit, label %.preheader

.preheader:                                       ; preds = %SDL_GetGamepadJoystick_REAL.exit
  %11 = getelementptr inbounds nuw i8, ptr %10, i64 144
  %12 = load i32, ptr %11, align 8
  %.not6170 = icmp sgt i32 %12, 0
  br i1 %.not6170, label %.lr.ph, label %.loopexit

.lr.ph:                                           ; preds = %.preheader
  %13 = getelementptr inbounds nuw i8, ptr %10, i64 152
  %14 = load ptr, ptr %13, align 8
  %wide.trip.count = zext nneg i32 %12 to i64
  br label %16

15:                                               ; preds = %16
  %indvars.iv.next = add nuw nsw i64 %indvars.iv, 1
  %exitcond.not = icmp eq i64 %indvars.iv.next, %wide.trip.count
  br i1 %exitcond.not, label %.loopexit, label %16, !llvm.loop !52

16:                                               ; preds = %.lr.ph, %15
  %indvars.iv = phi i64 [ 0, %.lr.ph ], [ %indvars.iv.next, %15 ]
  %17 = getelementptr inbounds nuw %struct.SDL_JoystickSensorInfo, ptr %14, i64 %indvars.iv
  %18 = load i32, ptr %17, align 4
  %.not60 = icmp eq i32 %18, %1
  br i1 %.not60, label %19, label %15

19:                                               ; preds = %16
  %20 = getelementptr inbounds nuw i8, ptr %17, i64 4
  %21 = load i8, ptr %20, align 4, !range !23, !noundef !24
  %22 = icmp eq i8 %21, %4
  br i1 %22, label %23, label %24

23:                                               ; preds = %19
  tail call void @SDL_UnlockJoysticks_REAL() #10
  br label %78

24:                                               ; preds = %19
  switch i32 %1, label %49 [
    i32 1, label %25
    i32 2, label %37
  ]

25:                                               ; preds = %24
  %26 = getelementptr inbounds nuw i8, ptr %10, i64 244
  %27 = load i32, ptr %26, align 4
  %.not54 = icmp eq i32 %27, 0
  br i1 %.not54, label %49, label %28

28:                                               ; preds = %25
  br i1 %2, label %29, label %33

29:                                               ; preds = %28
  %30 = tail call ptr @SDL_OpenSensor_REAL(i32 noundef %27) #10
  %31 = getelementptr inbounds nuw i8, ptr %10, i64 248
  store ptr %30, ptr %31, align 8
  %.not59 = icmp eq ptr %30, null
  br i1 %.not59, label %32, label %76

32:                                               ; preds = %29
  tail call void @SDL_UnlockJoysticks_REAL() #10
  br label %78

33:                                               ; preds = %28
  %34 = getelementptr inbounds nuw i8, ptr %10, i64 248
  %35 = load ptr, ptr %34, align 8
  %.not58 = icmp eq ptr %35, null
  br i1 %.not58, label %76, label %36

36:                                               ; preds = %33
  tail call void @SDL_CloseSensor_REAL(ptr noundef nonnull %35) #10
  store ptr null, ptr %34, align 8
  br label %76

37:                                               ; preds = %24
  %38 = getelementptr inbounds nuw i8, ptr %10, i64 256
  %39 = load i32, ptr %38, align 8
  %.not55 = icmp eq i32 %39, 0
  br i1 %.not55, label %49, label %40

40:                                               ; preds = %37
  br i1 %2, label %41, label %45

41:                                               ; preds = %40
  %42 = tail call ptr @SDL_OpenSensor_REAL(i32 noundef %39) #10
  %43 = getelementptr inbounds nuw i8, ptr %10, i64 264
  store ptr %42, ptr %43, align 8
  %.not57 = icmp eq ptr %42, null
  br i1 %.not57, label %44, label %76

44:                                               ; preds = %41
  tail call void @SDL_UnlockJoysticks_REAL() #10
  br label %78

45:                                               ; preds = %40
  %46 = getelementptr inbounds nuw i8, ptr %10, i64 264
  %47 = load ptr, ptr %46, align 8
  %.not56 = icmp eq ptr %47, null
  br i1 %.not56, label %76, label %48

48:                                               ; preds = %45
  tail call void @SDL_CloseSensor_REAL(ptr noundef nonnull %47) #10
  store ptr null, ptr %46, align 8
  br label %76

49:                                               ; preds = %25, %24, %37
  %50 = getelementptr inbounds nuw i8, ptr %10, i64 148
  %51 = load i32, ptr %50, align 4
  br i1 %2, label %52, label %64

52:                                               ; preds = %49
  %53 = icmp eq i32 %51, 0
  br i1 %53, label %54, label %61

54:                                               ; preds = %52
  %55 = getelementptr inbounds nuw i8, ptr %10, i64 320
  %56 = load ptr, ptr %55, align 8
  %57 = getelementptr inbounds nuw i8, ptr %56, i64 128
  %58 = load ptr, ptr %57, align 8
  %59 = tail call zeroext i1 %58(ptr noundef nonnull %10, i1 noundef zeroext true) #10
  br i1 %59, label %._crit_edge74, label %60

._crit_edge74:                                    ; preds = %54
  %.pre75 = load i32, ptr %50, align 4
  br label %61

60:                                               ; preds = %54
  tail call void @SDL_UnlockJoysticks_REAL() #10
  br label %78

61:                                               ; preds = %._crit_edge74, %52
  %62 = phi i32 [ %.pre75, %._crit_edge74 ], [ %51, %52 ]
  %63 = add nsw i32 %62, 1
  store i32 %63, ptr %50, align 4
  br label %76

64:                                               ; preds = %49
  %65 = icmp eq i32 %51, 1
  br i1 %65, label %66, label %73

66:                                               ; preds = %64
  %67 = getelementptr inbounds nuw i8, ptr %10, i64 320
  %68 = load ptr, ptr %67, align 8
  %69 = getelementptr inbounds nuw i8, ptr %68, i64 128
  %70 = load ptr, ptr %69, align 8
  %71 = tail call zeroext i1 %70(ptr noundef nonnull %10, i1 noundef zeroext false) #10
  br i1 %71, label %._crit_edge, label %72

._crit_edge:                                      ; preds = %66
  %.pre = load i32, ptr %50, align 4
  br label %73

72:                                               ; preds = %66
  tail call void @SDL_UnlockJoysticks_REAL() #10
  br label %78

73:                                               ; preds = %._crit_edge, %64
  %74 = phi i32 [ %.pre, %._crit_edge ], [ %51, %64 ]
  %75 = add nsw i32 %74, -1
  store i32 %75, ptr %50, align 4
  br label %76

76:                                               ; preds = %45, %48, %41, %73, %61, %29, %36, %33
  store i8 %4, ptr %20, align 4
  tail call void @SDL_UnlockJoysticks_REAL() #10
  br label %78

.loopexit:                                        ; preds = %15, %.preheader, %SDL_GetGamepadJoystick_REAL.exit, %SDL_GetGamepadJoystick_REAL.exit.thread
  tail call void @SDL_UnlockJoysticks_REAL() #10
  %77 = tail call zeroext i1 (ptr, ...) @SDL_SetError_REAL(ptr noundef nonnull @.str.23) #10
  br label %78

78:                                               ; preds = %23, %32, %44, %60, %72, %76, %.loopexit
  %.5 = phi i1 [ %77, %.loopexit ], [ false, %72 ], [ false, %60 ], [ false, %44 ], [ false, %32 ], [ true, %76 ], [ true, %23 ]
  ret i1 %.5
}